; Function Attrs: mustprogress nofree norecurse nosync nounwind willreturn memory(argmem: write) uwtable
define void @_ZN6google8protobuf6StructC2EPNS0_5ArenaE(ptr nocapture noundef nonnull writeonly align 8 dereferenceable(72) %this, ptr noundef %arena) unnamed_addr #5 align 2 personality ptr @__gxx_personality_v0 {
invoke.cont:
  %_internal_metadata_.i.i = getelementptr inbounds i8, ptr %this, i64 8
  %0 = ptrtoint ptr %arena to i64
  store i64 %0, ptr %_internal_metadata_.i.i, align 8
  store ptr getelementptr inbounds ({ [13 x ptr] }, ptr @_ZTVN6google8protobuf6StructE, i64 0, i32 0, i64 2), ptr %this, align 8
  %1 = getelementptr inbounds i8, ptr %this, i64 16
  store ptr @_ZN6google8protobuf8internal8MapFieldINS0_27Struct_FieldsEntry_DoNotUseENSt7__cxx1112basic_stringIcSt11char_traitsIcESaIcEEENS0_5ValueELNS1_14WireFormatLite9FieldTypeE9ELSC_11EE7kVTableE, ptr %1, align 8
  %payload_.i.i.i.i.i = getelementptr inbounds i8, ptr %this, i64 24
  store i64 %0, ptr %payload_.i.i.i.i.i, align 8
  %2 = getelementptr inbounds i8, ptr %this, i64 32
  store <4 x i32> <i32 0, i32 1, i32 0, i32 1>, ptr %2, align 8
  %table_.i.i.i.i.i.i.i = getelementptr inbounds i8, ptr %this, i64 48
  store ptr @_ZN6google8protobuf8internal17kGlobalEmptyTableE, ptr %table_.i.i.i.i.i.i.i, align 8
  %alloc_.i.i.i.i.i.i.i = getelementptr inbounds i8, ptr %this, i64 56
  store ptr %arena, ptr %alloc_.i.i.i.i.i.i.i, align 8
  %_cached_size_.i.i = getelementptr inbounds i8, ptr %this, i64 64
  store i32 0, ptr %_cached_size_.i.i, align 8
  ret void
}